target datalayout = "e-m:e-p270:32:32-p271:32:32-p272:64:64-i64:64-i128:128-f80:128-n8:16:32:64-S128"
target triple = "x86_64-pc-linux-gnu"

%struct.RBasic = type { i64, i64 }

@id_at_path = internal global i64 0, align 8
@id_writable_real_p = internal global i64 0, align 8
@rb_eTypeError = external global i64, align 8
@.str.91 = private unnamed_addr constant [17 x i8] c"unexpected @path\00", align 1
@rb_mFileTest = external global i64, align 8

; Function Attrs: inlinehint nounwind sspstrong willreturn memory(none) uwtable
define internal zeroext i1 @RB_IMMEDIATE_P(i64 noundef %0) #8 {
  %2 = alloca i64, align 8
  store i64 %0, ptr %2, align 8, !tbaa !6
  %3 = load i64, ptr %2, align 8, !tbaa !6
  %4 = and i64 %3, 7
  %5 = icmp ne i64 %4, 0
  ret i1 %5
}

; Function Attrs: inlinehint nounwind sspstrong willreturn memory(none) uwtable
define internal zeroext i1 @RB_FLONUM_P(i64 noundef %0) #8 {
  %2 = alloca i64, align 8
  store i64 %0, ptr %2, align 8, !tbaa !6
  %3 = load i64, ptr %2, align 8, !tbaa !6
  %4 = and i64 %3, 3
  %5 = icmp eq i64 %4, 2
  ret i1 %5
}

; Function Attrs: inlinehint nounwind sspstrong willreturn memory(read) uwtable
define internal zeroext i1 @RB_DYNAMIC_SYM_P(i64 noundef %0) #4 {
  %2 = alloca i1, align 1
  %3 = alloca i64, align 8
  store i64 %0, ptr %3, align 8, !tbaa !6
  %4 = load i64, ptr %3, align 8, !tbaa !6
  %5 = call zeroext i1 @RB_SPECIAL_CONST_P(i64 noundef %4) #19
  br i1 %5, label %6, label %7

6:                                                ; preds = %1
  store i1 false, ptr %2, align 1
  br label %11

7:                                                ; preds = %1
  %8 = load i64, ptr %3, align 8, !tbaa !6
  %9 = call i32 @RB_BUILTIN_TYPE(i64 noundef %8) #17
  %10 = icmp eq i32 %9, 20
  store i1 %10, ptr %2, align 1
  br label %11

11:                                               ; preds = %7, %6
  %12 = load i1, ptr %2, align 1
  ret i1 %12
}

; Function Attrs: inlinehint nounwind sspstrong willreturn memory(none) uwtable
define internal zeroext i1 @RB_STATIC_SYM_P(i64 noundef %0) #8 {
  %2 = alloca i64, align 8
  %3 = alloca i64, align 8
  store i64 %0, ptr %2, align 8, !tbaa !6
  call void @llvm.lifetime.start.p0(i64 8, ptr %3) #16
  store i64 255, ptr %3, align 8, !tbaa !6
  %4 = load i64, ptr %2, align 8, !tbaa !6
  %5 = and i64 %4, 255
  %6 = icmp eq i64 %5, 12
  call void @llvm.lifetime.end.p0(i64 8, ptr %3) #16
  ret i1 %6
}

; Function Attrs: inlinehint nounwind sspstrong willreturn memory(read) uwtable
define internal i32 @rb_type(i64 noundef %0) #4 {
  %2 = alloca i32, align 4
  %3 = alloca i64, align 8
  store i64 %0, ptr %3, align 8, !tbaa !6
  %4 = load i64, ptr %3, align 8, !tbaa !6
  %5 = call zeroext i1 @RB_SPECIAL_CONST_P(i64 noundef %4) #19
  br i1 %5, label %9, label %6

6:                                                ; preds = %1
  %7 = load i64, ptr %3, align 8, !tbaa !6
  %8 = call i32 @RB_BUILTIN_TYPE(i64 noundef %7) #17
  store i32 %8, ptr %2, align 4
  br label %36

9:                                                ; preds = %1
  %10 = load i64, ptr %3, align 8, !tbaa !6
  %11 = icmp eq i64 %10, 0
  br i1 %11, label %12, label %13

12:                                               ; preds = %9
  store i32 19, ptr %2, align 4
  br label %36

13:                                               ; preds = %9
  %14 = load i64, ptr %3, align 8, !tbaa !6
  %15 = icmp eq i64 %14, 4
  br i1 %15, label %16, label %17

16:                                               ; preds = %13
  store i32 17, ptr %2, align 4
  br label %36

17:                                               ; preds = %13
  %18 = load i64, ptr %3, align 8, !tbaa !6
  %19 = icmp eq i64 %18, 20
  br i1 %19, label %20, label %21

20:                                               ; preds = %17
  store i32 18, ptr %2, align 4
  br label %36

21:                                               ; preds = %17
  %22 = load i64, ptr %3, align 8, !tbaa !6
  %23 = icmp eq i64 %22, 36
  br i1 %23, label %24, label %25

24:                                               ; preds = %21
  store i32 22, ptr %2, align 4
  br label %36

25:                                               ; preds = %21
  %26 = load i64, ptr %3, align 8, !tbaa !6
  %27 = call zeroext i1 @RB_FIXNUM_P(i64 noundef %26) #19
  br i1 %27, label %28, label %29

28:                                               ; preds = %25
  store i32 21, ptr %2, align 4
  br label %36

29:                                               ; preds = %25
  %30 = load i64, ptr %3, align 8, !tbaa !6
  %31 = call zeroext i1 @RB_STATIC_SYM_P(i64 noundef %30) #19
  br i1 %31, label %32, label %33

32:                                               ; preds = %29
  store i32 20, ptr %2, align 4
  br label %36

33:                                               ; preds = %29
  %34 = load i64, ptr %3, align 8, !tbaa !6
  %35 = call zeroext i1 @RB_FLONUM_P(i64 noundef %34) #19
  call void @llvm.assume(i1 %35)
  store i32 4, ptr %2, align 4
  br label %36

36:                                               ; preds = %33, %32, %28, %24, %20, %16, %12, %6
  %37 = load i32, ptr %2, align 4
  ret i32 %37
}

; Function Attrs: inlinehint nounwind sspstrong willreturn memory(read) uwtable
define internal i32 @RB_BUILTIN_TYPE(i64 noundef %0) #4 {
  %2 = alloca i64, align 8
  %3 = alloca i64, align 8
  store i64 %0, ptr %2, align 8, !tbaa !6
  call void @llvm.lifetime.start.p0(i64 8, ptr %3) #16
  %4 = load i64, ptr %2, align 8, !tbaa !6
  %5 = inttoptr i64 %4 to ptr
  %6 = getelementptr inbounds nuw %struct.RBasic, ptr %5, i32 0, i32 0
  %7 = load i64, ptr %6, align 8, !tbaa !26
  %8 = and i64 %7, 31
  store i64 %8, ptr %3, align 8, !tbaa !6
  %9 = load i64, ptr %3, align 8, !tbaa !6
  %10 = trunc i64 %9 to i32
  call void @llvm.lifetime.end.p0(i64 8, ptr %3) #16
  ret i32 %10
}

; Function Attrs: inlinehint nounwind sspstrong willreturn memory(none) uwtable
define internal zeroext i1 @RB_SPECIAL_CONST_P(i64 noundef %0) #8 {
  %2 = alloca i64, align 8
  store i64 %0, ptr %2, align 8, !tbaa !6
  %3 = load i64, ptr %2, align 8, !tbaa !6
  %4 = icmp eq i64 %3, 0
  br i1 %4, label %8, label %5

5:                                                ; preds = %1
  %6 = load i64, ptr %2, align 8, !tbaa !6
  %7 = call zeroext i1 @RB_IMMEDIATE_P(i64 noundef %6) #19
  br label %8

8:                                                ; preds = %5, %1
  %9 = phi i1 [ true, %1 ], [ %7, %5 ]
  ret i1 %9
}

; Function Attrs: inlinehint nounwind sspstrong willreturn memory(read) uwtable
define internal zeroext i1 @RB_FLOAT_TYPE_P(i64 noundef %0) #4 {
  %2 = alloca i1, align 1
  %3 = alloca i64, align 8
  store i64 %0, ptr %3, align 8, !tbaa !6
  %4 = load i64, ptr %3, align 8, !tbaa !6
  %5 = call zeroext i1 @RB_FLONUM_P(i64 noundef %4) #19
  br i1 %5, label %6, label %7

6:                                                ; preds = %1
  store i1 true, ptr %2, align 1
  br label %15

7:                                                ; preds = %1
  %8 = load i64, ptr %3, align 8, !tbaa !6
  %9 = call zeroext i1 @RB_SPECIAL_CONST_P(i64 noundef %8) #19
  br i1 %9, label %10, label %11

10:                                               ; preds = %7
  store i1 false, ptr %2, align 1
  br label %15

11:                                               ; preds = %7
  %12 = load i64, ptr %3, align 8, !tbaa !6
  %13 = call i32 @RB_BUILTIN_TYPE(i64 noundef %12) #17
  %14 = icmp eq i32 %13, 4
  store i1 %14, ptr %2, align 1
  br label %15

15:                                               ; preds = %11, %10, %6
  %16 = load i1, ptr %2, align 1
  ret i1 %16
}

; Function Attrs: inlinehint nounwind sspstrong willreturn memory(read) uwtable
define internal zeroext i1 @RB_SYMBOL_P(i64 noundef %0) #4 {
  %2 = alloca i64, align 8
  store i64 %0, ptr %2, align 8, !tbaa !6
  %3 = load i64, ptr %2, align 8, !tbaa !6
  %4 = call zeroext i1 @RB_STATIC_SYM_P(i64 noundef %3) #19
  br i1 %4, label %8, label %5

5:                                                ; preds = %1
  %6 = load i64, ptr %2, align 8, !tbaa !6
  %7 = call zeroext i1 @RB_DYNAMIC_SYM_P(i64 noundef %6) #17
  br label %8

8:                                                ; preds = %5, %1
  %9 = phi i1 [ true, %1 ], [ %7, %5 ]
  ret i1 %9
}

; Function Attrs: inlinehint nounwind sspstrong willreturn memory(none) uwtable
define internal zeroext i1 @RB_FIXNUM_P(i64 noundef %0) #8 {
  %2 = alloca i64, align 8
  store i64 %0, ptr %2, align 8, !tbaa !6
  %3 = load i64, ptr %2, align 8, !tbaa !6
  %4 = and i64 %3, 1
  %5 = icmp ne i64 %4, 0
  ret i1 %5
}

; Function Attrs: inlinehint nounwind sspstrong willreturn memory(read) uwtable
define internal zeroext i1 @RB_TYPE_P(i64 noundef %0, i32 noundef %1) #4 {
  %3 = alloca i1, align 1
  %4 = alloca i64, align 8
  %5 = alloca i32, align 4
  store i64 %0, ptr %4, align 8, !tbaa !6
  store i32 %1, ptr %5, align 4, !tbaa !14
  %6 = load i32, ptr %5, align 4, !tbaa !14
  %7 = call i1 @llvm.is.constant.i32(i32 %6)
  br i1 %7, label %8, label %12

8:                                                ; preds = %2
  %9 = load i64, ptr %4, align 8, !tbaa !6
  %10 = load i32, ptr %5, align 4, !tbaa !14
  %11 = call zeroext i1 @rbimpl_RB_TYPE_P_fastpath(i64 noundef %9, i32 noundef %10) #17
  store i1 %11, ptr %3, align 1
  br label %17

12:                                               ; preds = %2
  %13 = load i32, ptr %5, align 4, !tbaa !14
  %14 = load i64, ptr %4, align 8, !tbaa !6
  %15 = call i32 @rb_type(i64 noundef %14) #17
  %16 = icmp eq i32 %13, %15
  store i1 %16, ptr %3, align 1
  br label %17

17:                                               ; preds = %12, %8
  %18 = load i1, ptr %3, align 1
  ret i1 %18
}

; Function Attrs: alwaysinline nounwind sspstrong willreturn memory(read) uwtable
define internal zeroext i1 @rbimpl_RB_TYPE_P_fastpath(i64 noundef %0, i32 noundef %1) #3 {
  %3 = alloca i1, align 1
  %4 = alloca i64, align 8
  %5 = alloca i32, align 4
  store i64 %0, ptr %4, align 8, !tbaa !6
  store i32 %1, ptr %5, align 4, !tbaa !14
  %6 = load i32, ptr %5, align 4, !tbaa !14
  %7 = icmp eq i32 %6, 18
  br i1 %7, label %8, label %11

8:                                                ; preds = %2
  %9 = load i64, ptr %4, align 8, !tbaa !6
  %10 = icmp eq i64 %9, 20
  store i1 %10, ptr %3, align 1
  br label %58

11:                                               ; preds = %2
  %12 = load i32, ptr %5, align 4, !tbaa !14
  %13 = icmp eq i32 %12, 19
  br i1 %13, label %14, label %17

14:                                               ; preds = %11
  %15 = load i64, ptr %4, align 8, !tbaa !6
  %16 = icmp eq i64 %15, 0
  store i1 %16, ptr %3, align 1
  br label %58

17:                                               ; preds = %11
  %18 = load i32, ptr %5, align 4, !tbaa !14
  %19 = icmp eq i32 %18, 17
  br i1 %19, label %20, label %23

20:                                               ; preds = %17
  %21 = load i64, ptr %4, align 8, !tbaa !6
  %22 = icmp eq i64 %21, 4
  store i1 %22, ptr %3, align 1
  br label %58

23:                                               ; preds = %17
  %24 = load i32, ptr %5, align 4, !tbaa !14
  %25 = icmp eq i32 %24, 22
  br i1 %25, label %26, label %29

26:                                               ; preds = %23
  %27 = load i64, ptr %4, align 8, !tbaa !6
  %28 = icmp eq i64 %27, 36
  store i1 %28, ptr %3, align 1
  br label %58

29:                                               ; preds = %23
  %30 = load i32, ptr %5, align 4, !tbaa !14
  %31 = icmp eq i32 %30, 21
  br i1 %31, label %32, label %35

32:                                               ; preds = %29
  %33 = load i64, ptr %4, align 8, !tbaa !6
  %34 = call zeroext i1 @RB_FIXNUM_P(i64 noundef %33) #19
  store i1 %34, ptr %3, align 1
  br label %58

35:                                               ; preds = %29
  %36 = load i32, ptr %5, align 4, !tbaa !14
  %37 = icmp eq i32 %36, 20
  br i1 %37, label %38, label %41

38:                                               ; preds = %35
  %39 = load i64, ptr %4, align 8, !tbaa !6
  %40 = call zeroext i1 @RB_SYMBOL_P(i64 noundef %39) #17
  store i1 %40, ptr %3, align 1
  br label %58

41:                                               ; preds = %35
  %42 = load i32, ptr %5, align 4, !tbaa !14
  %43 = icmp eq i32 %42, 4
  br i1 %43, label %44, label %47

44:                                               ; preds = %41
  %45 = load i64, ptr %4, align 8, !tbaa !6
  %46 = call zeroext i1 @RB_FLOAT_TYPE_P(i64 noundef %45) #17
  store i1 %46, ptr %3, align 1
  br label %58

47:                                               ; preds = %41
  %48 = load i64, ptr %4, align 8, !tbaa !6
  %49 = call zeroext i1 @RB_SPECIAL_CONST_P(i64 noundef %48) #19
  br i1 %49, label %50, label %51

50:                                               ; preds = %47
  store i1 false, ptr %3, align 1
  br label %58

51:                                               ; preds = %47
  %52 = load i32, ptr %5, align 4, !tbaa !14
  %53 = load i64, ptr %4, align 8, !tbaa !6
  %54 = call i32 @RB_BUILTIN_TYPE(i64 noundef %53) #17
  %55 = icmp eq i32 %52, %54
  br i1 %55, label %56, label %57

56:                                               ; preds = %51
  store i1 true, ptr %3, align 1
  br label %58

57:                                               ; preds = %51
  store i1 false, ptr %3, align 1
  br label %58

58:                                               ; preds = %57, %56, %50, %44, %38, %32, %26, %20, %14, %8
  %59 = load i1, ptr %3, align 1
  ret i1 %59
}

; Function Attrs: nounwind sspstrong uwtable
define internal i64 @get_strpath(i64 noundef %0) #0 {
  %2 = alloca i64, align 8
  %3 = alloca i64, align 8
  store i64 %0, ptr %2, align 8, !tbaa !6
  call void @llvm.lifetime.start.p0(i64 8, ptr %3) #16
  %4 = load i64, ptr %2, align 8, !tbaa !6
  %5 = load i64, ptr @id_at_path, align 8, !tbaa !6
  %6 = call i64 @rb_ivar_get(i64 noundef %4, i64 noundef %5)
  store i64 %6, ptr %3, align 8, !tbaa !6
  br i1 true, label %7, label %10

7:                                                ; preds = %1
  %8 = load i64, ptr %3, align 8, !tbaa !6
  %9 = call zeroext i1 @rbimpl_RB_TYPE_P_fastpath(i64 noundef %8, i32 noundef 5) #17
  br i1 %9, label %15, label %13

10:                                               ; preds = %1
  %11 = load i64, ptr %3, align 8, !tbaa !6
  %12 = call zeroext i1 @RB_TYPE_P(i64 noundef %11, i32 noundef 5) #17
  br i1 %12, label %15, label %13

13:                                               ; preds = %10, %7
  %14 = load i64, ptr @rb_eTypeError, align 8, !tbaa !6
  call void (i64, ptr, ...) @rb_raise(i64 noundef %14, ptr noundef @.str.91) #18
  unreachable

15:                                               ; preds = %10, %7
  %16 = load i64, ptr %3, align 8, !tbaa !6
  call void @llvm.lifetime.end.p0(i64 8, ptr %3) #16
  ret i64 %16
}

; Function Attrs: nounwind sspstrong uwtable
define internal i64 @path_writable_real_p(i64 noundef %0) #0 {
  %2 = alloca i64, align 8
  store i64 %0, ptr %2, align 8, !tbaa !6
  %3 = load i64, ptr @rb_mFileTest, align 8, !tbaa !6
  %4 = load i64, ptr @id_writable_real_p, align 8, !tbaa !6
  %5 = load i64, ptr %2, align 8, !tbaa !6
  %6 = call i64 @get_strpath(i64 noundef %5)
  %7 = call i64 (i64, i64, i32, ...) @rb_funcall(i64 noundef %3, i64 noundef %4, i32 noundef 1, i64 noundef %6)
  ret i64 %7
}